; Function Attrs: mustprogress nounwind uwtable
define hidden noundef nonnull align 8 dereferenceable(56) ptr @_ZN12outputStream6indentEv(ptr noundef nonnull returned align 8 dereferenceable(56) %0) local_unnamed_addr #0 align 2 {
  %2 = getelementptr inbounds i8, ptr %0, i64 8
  %3 = load i32, ptr %2, align 8
  %4 = getelementptr inbounds i8, ptr %0, i64 16
  %5 = load i32, ptr %4, align 8
  %6 = sub nsw i32 %3, %5
  %7 = icmp sgt i32 %6, 0
  br i1 %7, label %.preheader.i, label %_ZN12outputStream2spEi.exit

.preheader.i:                                     ; preds = %1, %.preheader.i
  %.0.i = phi i32 [ %13, %.preheader.i ], [ %6, %1 ]
  %8 = tail call i32 @llvm.umin.i32(i32 %.0.i, i32 8)
  %9 = zext nneg i32 %8 to i64
  %10 = load ptr, ptr %0, align 8
  %11 = getelementptr inbounds i8, ptr %10, i64 8
  %12 = load ptr, ptr %11, align 8
  tail call void %12(ptr noundef nonnull align 8 dereferenceable(56) %0, ptr noundef nonnull @.str.4, i64 noundef %9) #21
  %13 = sub nsw i32 %.0.i, %8
  %.old1.i = icmp sgt i32 %13, 0
  br i1 %.old1.i, label %.preheader.i, label %_ZN12outputStream2spEi.exit

_ZN12outputStream2spEi.exit:                      ; preds = %.preheader.i, %1
  ret ptr %0
}